target datalayout = "e-m:e-p270:32:32-p271:32:32-p272:64:64-i64:64-i128:128-f80:128-n8:16:32:64-S128"
target triple = "x86_64-pc-linux-gnu"

%"class.sls::datatype_plugin" = type { %"class.sls::plugin.base", ptr, ptr, %class.obj_map, %class.obj_map.0, i8, %"class.datatype::util", %class.ref_vector, %class.ref_vector, %class.ref_vector, %class.ref, %"struct.sls::datatype_plugin::stats", [4 x i8], %class.obj_map.5, %class.obj_map.10 }
%"class.sls::plugin.base" = type <{ ptr, ptr, ptr, i32 }>
%class.obj_map = type { %class.core_hashtable }
%class.core_hashtable = type <{ ptr, i32, i32, i32, [4 x i8] }>
%class.obj_map.0 = type { %class.core_hashtable.1 }
%class.core_hashtable.1 = type <{ ptr, i32, i32, i32, [4 x i8] }>
%"class.datatype::util" = type { ptr, i32, ptr }
%class.ref_vector = type { %class.ref_vector_core }
%class.ref_vector_core = type { %class.ref_manager_wrapper, %class.ptr_vector }
%class.ref_manager_wrapper = type { ptr }
%class.ptr_vector = type { %class.vector }
%class.vector = type { ptr }
%class.ref = type { ptr }
%"struct.sls::datatype_plugin::stats" = type { i32 }
%class.obj_map.5 = type { %class.core_hashtable.6 }
%class.core_hashtable.6 = type <{ ptr, i32, i32, i32, [4 x i8] }>
%class.obj_map.10 = type { %class.core_hashtable.11 }
%class.core_hashtable.11 = type <{ ptr, i32, i32, i32, [4 x i8] }>
%"class.sls::plugin" = type <{ ptr, ptr, ptr, i32, [4 x i8] }>
%"class.sat::literal" = type { i32 }
%class.ast = type { i32, i32, i32, i32 }
%"class.sls::context" = type <{ ptr, ptr, %class.scoped_ptr_vector, %class.indexed_uint_set, %class.indexed_uint_set, %class.ref_vector, %class.svector, %class.params_ref, %class.vector.18, %class.svector.19, %class.svector.19, %class.indexed_uint_set, %class.random_gen, i8, i8, i8, i8, %class.ref_vector, %class.ref_vector, %class.ptr_vector, %"struct.sls::context::greater_depth", %"struct.sls::context::less_depth", %class.heap, %class.heap.23, %class.uint_set, %class.ref_vector, %"struct.sls::context::stats", [4 x i8], %class.ref_vector, i8, [7 x i8] }>
%class.scoped_ptr_vector = type { %class.ptr_vector.15 }
%class.ptr_vector.15 = type { %class.vector.16 }
%class.vector.16 = type { ptr }
%class.svector = type { %class.vector.17 }
%class.vector.17 = type { ptr }
%class.params_ref = type { ptr }
%class.vector.18 = type { ptr }
%class.svector.19 = type { %class.vector.20 }
%class.vector.20 = type { ptr }
%class.indexed_uint_set = type { i32, %class.svector, %class.svector }
%class.random_gen = type { i32 }
%"struct.sls::context::greater_depth" = type { ptr }
%"struct.sls::context::less_depth" = type { ptr }
%class.heap = type { %"struct.sls::context::greater_depth", %class.svector.21, %class.svector.21 }
%class.svector.21 = type { %class.vector.22 }
%class.vector.22 = type { ptr }
%class.heap.23 = type { %"struct.sls::context::less_depth", %class.svector.21, %class.svector.21 }
%class.uint_set = type { %class.svector }
%"struct.sls::context::stats" = type { i32, i32, i32 }

; Function Attrs: mustprogress nounwind uwtable
define linkonce_odr hidden noundef i32 @_ZNK6vectorIP4exprLb0EjE4sizeEv(ptr noundef nonnull align 8 dereferenceable(8) %0) #5 comdat align 2 {
  %2 = alloca i32, align 4
  %3 = alloca ptr, align 8
  store ptr %0, ptr %3, align 8, !tbaa !83
  %4 = load ptr, ptr %3, align 8
  %5 = getelementptr inbounds nuw %class.vector, ptr %4, i32 0, i32 0
  %6 = load ptr, ptr %5, align 8, !tbaa !85
  %7 = icmp eq ptr %6, null
  br i1 %7, label %8, label %9

8:                                                ; preds = %1
  store i32 0, ptr %2, align 4
  br label %14

9:                                                ; preds = %1
  %10 = getelementptr inbounds nuw %class.vector, ptr %4, i32 0, i32 0
  %11 = load ptr, ptr %10, align 8, !tbaa !85
  %12 = getelementptr inbounds i32, ptr %11, i64 -1
  %13 = load i32, ptr %12, align 4, !tbaa !79
  store i32 %13, ptr %2, align 4
  br label %14

14:                                               ; preds = %9, %8
  %15 = load i32, ptr %2, align 4
  ret i32 %15
}

; Function Attrs: mustprogress nounwind uwtable
define linkonce_odr hidden noundef nonnull align 8 dereferenceable(8) ptr @_ZNK6vectorIP4exprLb0EjE3getEjRKS1_(ptr noundef nonnull align 8 dereferenceable(8) %0, i32 noundef %1, ptr noundef nonnull align 8 dereferenceable(8) %2) #5 comdat align 2 {
  %4 = alloca ptr, align 8
  %5 = alloca ptr, align 8
  %6 = alloca i32, align 4
  %7 = alloca ptr, align 8
  store ptr %0, ptr %5, align 8, !tbaa !83
  store i32 %1, ptr %6, align 4, !tbaa !79
  store ptr %2, ptr %7, align 8, !tbaa !76
  %8 = load ptr, ptr %5, align 8
  %9 = load i32, ptr %6, align 4, !tbaa !79
  %10 = call noundef i32 @_ZNK6vectorIP4exprLb0EjE4sizeEv(ptr noundef nonnull align 8 dereferenceable(8) %8)
  %11 = icmp uge i32 %9, %10
  br i1 %11, label %12, label %14

12:                                               ; preds = %3
  %13 = load ptr, ptr %7, align 8, !tbaa !76
  store ptr %13, ptr %4, align 8
  br label %20

14:                                               ; preds = %3
  %15 = getelementptr inbounds nuw %class.vector, ptr %8, i32 0, i32 0
  %16 = load ptr, ptr %15, align 8, !tbaa !85
  %17 = load i32, ptr %6, align 4, !tbaa !79
  %18 = zext i32 %17 to i64
  %19 = getelementptr inbounds nuw ptr, ptr %16, i64 %18
  store ptr %19, ptr %4, align 8
  br label %20

20:                                               ; preds = %14, %12
  %21 = load ptr, ptr %4, align 8
  ret ptr %21
}

; Function Attrs: mustprogress nounwind uwtable
define linkonce_odr hidden noundef i32 @_ZNK3ast8get_kindEv(ptr noundef nonnull align 4 dereferenceable(16) %0) #5 comdat align 2 {
  %2 = alloca ptr, align 8
  store ptr %0, ptr %2, align 8, !tbaa !91
  %3 = load ptr, ptr %2, align 8
  %4 = getelementptr inbounds nuw %class.ast, ptr %3, i32 0, i32 1
  %5 = load i32, ptr %4, align 4
  %6 = and i32 %5, 65535
  ret i32 %6
}

; Function Attrs: mustprogress uwtable
define linkonce_odr hidden noundef ptr @_ZNK15ref_vector_coreI4expr19ref_manager_wrapperIS0_11ast_managerEE3getEjPS0_(ptr noundef nonnull align 8 dereferenceable(16) %0, i32 noundef %1, ptr noundef %2) #4 comdat align 2 {
  %4 = alloca ptr, align 8
  %5 = alloca i32, align 4
  %6 = alloca ptr, align 8
  store ptr %0, ptr %4, align 8, !tbaa !67
  store i32 %1, ptr %5, align 4, !tbaa !79
  store ptr %2, ptr %6, align 8, !tbaa !71
  %7 = load ptr, ptr %4, align 8
  %8 = getelementptr inbounds nuw %class.ref_vector_core, ptr %7, i32 0, i32 1
  %9 = load i32, ptr %5, align 4, !tbaa !79
  %10 = call noundef nonnull align 8 dereferenceable(8) ptr @_ZNK6vectorIP4exprLb0EjE3getEjRKS1_(ptr noundef nonnull align 8 dereferenceable(8) %8, i32 noundef %9, ptr noundef nonnull align 8 dereferenceable(8) %6)
  %11 = load ptr, ptr %10, align 8, !tbaa !71
  ret ptr %11
}

; Function Attrs: inlinehint mustprogress nounwind uwtable
define linkonce_odr hidden noundef ptr @_Z6to_appP3ast(ptr noundef %0) #6 comdat {
  %2 = alloca ptr, align 8
  store ptr %0, ptr %2, align 8, !tbaa !91
  %3 = load ptr, ptr %2, align 8, !tbaa !91
  ret ptr %3
}

; Function Attrs: inlinehint mustprogress nounwind uwtable
define linkonce_odr hidden noundef zeroext i1 @_Z6is_appPK3ast(ptr noundef %0) #6 comdat {
  %2 = alloca ptr, align 8
  store ptr %0, ptr %2, align 8, !tbaa !91
  %3 = load ptr, ptr %2, align 8, !tbaa !91
  %4 = call noundef i32 @_ZNK3ast8get_kindEv(ptr noundef nonnull align 4 dereferenceable(16) %3)
  %5 = icmp eq i32 %4, 0
  ret i1 %5
}

; Function Attrs: mustprogress uwtable
define linkonce_odr hidden noundef ptr @_ZN3sls7context4atomEj(ptr noundef nonnull align 8 dereferenceable(321) %0, i32 noundef %1) #4 comdat align 2 {
  %3 = alloca ptr, align 8
  %4 = alloca i32, align 4
  store ptr %0, ptr %3, align 8, !tbaa !8
  store i32 %1, ptr %4, align 4, !tbaa !79
  %5 = load ptr, ptr %3, align 8
  %6 = getelementptr inbounds nuw %"class.sls::context", ptr %5, i32 0, i32 5
  %7 = load i32, ptr %4, align 4, !tbaa !79
  %8 = call noundef ptr @_ZNK15ref_vector_coreI4expr19ref_manager_wrapperIS0_11ast_managerEE3getEjPS0_(ptr noundef nonnull align 8 dereferenceable(16) %6, i32 noundef %7, ptr noundef null)
  ret ptr %8
}

; Function Attrs: mustprogress nounwind uwtable
define linkonce_odr hidden noundef i32 @_ZNK3sat7literal3varEv(ptr noundef nonnull align 4 dereferenceable(4) %0) #5 comdat align 2 {
  %2 = alloca ptr, align 8
  store ptr %0, ptr %2, align 8, !tbaa !125
  %3 = load ptr, ptr %2, align 8
  %4 = getelementptr inbounds nuw %"class.sat::literal", ptr %3, i32 0, i32 0
  %5 = load i32, ptr %4, align 4, !tbaa !129
  %6 = lshr i32 %5, 1
  ret i32 %6
}

; Function Attrs: mustprogress uwtable
define linkonce_odr hidden noundef zeroext i1 @_ZN3sls7context7is_trueEN3sat7literalE(ptr noundef nonnull align 8 dereferenceable(321) %0, i32 %1) #4 comdat align 2 {
  %3 = alloca %"class.sat::literal", align 4
  %4 = alloca ptr, align 8
  %5 = alloca %"class.sat::literal", align 4
  %6 = getelementptr inbounds nuw %"class.sat::literal", ptr %3, i32 0, i32 0
  store i32 %1, ptr %6, align 4
  store ptr %0, ptr %4, align 8, !tbaa !8
  %7 = load ptr, ptr %4, align 8
  %8 = getelementptr inbounds nuw %"class.sls::context", ptr %7, i32 0, i32 1
  %9 = load ptr, ptr %8, align 8, !tbaa !99
  call void @llvm.memcpy.p0.p0.i64(ptr align 4 %5, ptr align 4 %3, i64 4, i1 false), !tbaa.struct !80
  %10 = getelementptr inbounds nuw %"class.sat::literal", ptr %5, i32 0, i32 0
  %11 = load i32, ptr %10, align 4
  %12 = load ptr, ptr %9, align 8, !tbaa !10
  %13 = getelementptr inbounds ptr, ptr %12, i64 10
  %14 = load ptr, ptr %13, align 8
  %15 = call noundef zeroext i1 %14(ptr noundef nonnull align 8 dereferenceable(8) %9, i32 %11)
  ret i1 %15
}

; Function Attrs: mustprogress uwtable
define hidden void @_ZN3sls15datatype_plugin32propagate_literal_model_buildingEN3sat7literalE(ptr noundef nonnull align 8 dereferenceable(240) %0, i32 %1) #4 align 2 {
  %3 = alloca %"class.sat::literal", align 4
  %4 = alloca ptr, align 8
  %5 = alloca %"class.sat::literal", align 4
  %6 = alloca ptr, align 8
  %7 = alloca i32, align 4
  %8 = getelementptr inbounds nuw %"class.sat::literal", ptr %3, i32 0, i32 0
  store i32 %1, ptr %8, align 4
  store ptr %0, ptr %4, align 8, !tbaa !3
  %9 = load ptr, ptr %4, align 8
  %10 = getelementptr inbounds nuw %"class.sls::plugin", ptr %9, i32 0, i32 1
  %11 = load ptr, ptr %10, align 8, !tbaa !73
  call void @llvm.memcpy.p0.p0.i64(ptr align 4 %5, ptr align 4 %3, i64 4, i1 false), !tbaa.struct !80
  %12 = getelementptr inbounds nuw %"class.sat::literal", ptr %5, i32 0, i32 0
  %13 = load i32, ptr %12, align 4
  %14 = call noundef zeroext i1 @_ZN3sls7context7is_trueEN3sat7literalE(ptr noundef nonnull align 8 dereferenceable(321) %11, i32 %13)
  br i1 %14, label %16, label %15

15:                                               ; preds = %2
  br label %36

16:                                               ; preds = %2
  call void @llvm.lifetime.start.p0(i64 8, ptr %6) #3
  %17 = getelementptr inbounds nuw %"class.sls::plugin", ptr %9, i32 0, i32 1
  %18 = load ptr, ptr %17, align 8, !tbaa !73
  %19 = call noundef i32 @_ZNK3sat7literal3varEv(ptr noundef nonnull align 4 dereferenceable(4) %3)
  %20 = call noundef ptr @_ZN3sls7context4atomEj(ptr noundef nonnull align 8 dereferenceable(321) %18, i32 noundef %19)
  store ptr %20, ptr %6, align 8, !tbaa !71
  %21 = load ptr, ptr %6, align 8, !tbaa !71
  %22 = icmp ne ptr %21, null
  br i1 %22, label %23, label %26

23:                                               ; preds = %16
  %24 = load ptr, ptr %6, align 8, !tbaa !71
  %25 = call noundef zeroext i1 @_Z6is_appPK3ast(ptr noundef %24)
  br i1 %25, label %27, label %26

26:                                               ; preds = %23, %16
  store i32 1, ptr %7, align 4
  br label %34

27:                                               ; preds = %23
  %28 = load ptr, ptr %6, align 8, !tbaa !71
  %29 = call noundef ptr @_Z6to_appP3ast(ptr noundef %28)
  %30 = load ptr, ptr %9, align 8, !tbaa !10
  %31 = getelementptr inbounds ptr, ptr %30, i64 11
  %32 = load ptr, ptr %31, align 8
  %33 = call noundef zeroext i1 %32(ptr noundef nonnull align 8 dereferenceable(240) %9, ptr noundef %29)
  store i32 0, ptr %7, align 4
  br label %34

34:                                               ; preds = %27, %26
  call void @llvm.lifetime.end.p0(i64 8, ptr %6) #3
  %35 = load i32, ptr %7, align 4
  switch i32 %35, label %37 [
    i32 0, label %36
    i32 1, label %36
  ]

36:                                               ; preds = %15, %34, %34
  ret void

37:                                               ; preds = %34
  unreachable
}

; Function Attrs: mustprogress uwtable
define hidden void @_ZN3sls15datatype_plugin17propagate_literalEN3sat7literalE(ptr noundef nonnull align 8 dereferenceable(240) %0, i32 %1) unnamed_addr #4 align 2 {
  %3 = alloca %"class.sat::literal", align 4
  %4 = alloca ptr, align 8
  %5 = alloca %"class.sat::literal", align 4
  %6 = alloca %"class.sat::literal", align 4
  %7 = getelementptr inbounds nuw %"class.sat::literal", ptr %3, i32 0, i32 0
  store i32 %1, ptr %7, align 4
  store ptr %0, ptr %4, align 8, !tbaa !3
  %8 = load ptr, ptr %4, align 8
  %9 = getelementptr inbounds nuw %"class.sls::datatype_plugin", ptr %8, i32 0, i32 5
  %10 = load i8, ptr %9, align 8, !tbaa !16, !range !127, !noundef !128
  %11 = trunc i8 %10 to i1
  br i1 %11, label %12, label %20

12:                                               ; preds = %2
  %13 = getelementptr inbounds nuw %"class.sls::datatype_plugin", ptr %8, i32 0, i32 1
  %14 = load ptr, ptr %13, align 8, !tbaa !284
  call void @llvm.memcpy.p0.p0.i64(ptr align 4 %5, ptr align 4 %3, i64 4, i1 false), !tbaa.struct !80
  %15 = getelementptr inbounds nuw %"class.sat::literal", ptr %5, i32 0, i32 0
  %16 = load i32, ptr %15, align 4
  %17 = load ptr, ptr %14, align 8, !tbaa !10
  %18 = getelementptr inbounds ptr, ptr %17, i64 9
  %19 = load ptr, ptr %18, align 8
  call void %19(ptr noundef nonnull align 8 dereferenceable(136) %14, i32 %16)
  br label %23

20:                                               ; preds = %2
  call void @llvm.memcpy.p0.p0.i64(ptr align 4 %6, ptr align 4 %3, i64 4, i1 false), !tbaa.struct !80
  %21 = getelementptr inbounds nuw %"class.sat::literal", ptr %6, i32 0, i32 0
  %22 = load i32, ptr %21, align 4
  call void @_ZN3sls15datatype_plugin32propagate_literal_model_buildingEN3sat7literalE(ptr noundef nonnull align 8 dereferenceable(240) %8, i32 %22)
  br label %23

23:                                               ; preds = %20, %12
  ret void
}