; Function Attrs: mustprogress uwtable
define hidden void @_ZN3sls15datatype_plugin17propagate_literalEN3sat7literalE(ptr noundef nonnull align 8 dereferenceable(240) %0, i32 %1) unnamed_addr #3 align 2 {
  %3 = getelementptr inbounds nuw i8, ptr %0, i64 96
  %4 = load i8, ptr %3, align 8, !tbaa !25, !range !182, !noundef !183
  %5 = trunc nuw i8 %4 to i1
  br i1 %5, label %6, label %12

6:                                                ; preds = %2
  %7 = getelementptr inbounds nuw i8, ptr %0, i64 32
  %8 = load ptr, ptr %7, align 8, !tbaa !255
  %9 = load ptr, ptr %8, align 8, !tbaa !3
  %10 = getelementptr inbounds nuw i8, ptr %9, i64 72
  %11 = load ptr, ptr %10, align 8
  tail call void %11(ptr noundef nonnull align 8 dereferenceable(136) %8, i32 %1)
  br label %_ZN3sls15datatype_plugin32propagate_literal_model_buildingEN3sat7literalE.exit

12:                                               ; preds = %2
  %13 = getelementptr inbounds nuw i8, ptr %0, i64 8
  %14 = load ptr, ptr %13, align 8, !tbaa !92
  %15 = getelementptr inbounds nuw i8, ptr %14, i64 8
  %16 = load ptr, ptr %15, align 8, !tbaa !93
  %17 = load ptr, ptr %16, align 8, !tbaa !3
  %18 = getelementptr inbounds nuw i8, ptr %17, i64 80
  %19 = load ptr, ptr %18, align 8
  %20 = tail call noundef zeroext i1 %19(ptr noundef nonnull align 8 dereferenceable(8) %16, i32 %1)
  br i1 %20, label %21, label %_ZN3sls15datatype_plugin32propagate_literal_model_buildingEN3sat7literalE.exit

21:                                               ; preds = %12
  %22 = load ptr, ptr %13, align 8, !tbaa !92
  %23 = lshr i32 %1, 1
  %24 = getelementptr inbounds nuw i8, ptr %22, i64 80
  %25 = load ptr, ptr %24, align 8, !tbaa !53
  %26 = icmp eq ptr %25, null
  br i1 %26, label %_ZN3sls15datatype_plugin32propagate_literal_model_buildingEN3sat7literalE.exit, label %_ZNK6vectorIP4exprLb0EjE3getEjRKS1_.exit.i.i.i

_ZNK6vectorIP4exprLb0EjE3getEjRKS1_.exit.i.i.i:   ; preds = %21
  %27 = getelementptr inbounds i8, ptr %25, i64 -4
  %28 = load i32, ptr %27, align 4, !tbaa !84
  %.not.i.i.i.i = icmp ult i32 %23, %28
  br i1 %.not.i.i.i.i, label %_ZN3sls7context4atomEj.exit.i, label %_ZN3sls15datatype_plugin32propagate_literal_model_buildingEN3sat7literalE.exit

_ZN3sls7context4atomEj.exit.i:                    ; preds = %_ZNK6vectorIP4exprLb0EjE3getEjRKS1_.exit.i.i.i
  %29 = zext nneg i32 %23 to i64
  %30 = getelementptr inbounds nuw ptr, ptr %25, i64 %29
  %.then.val.i.i.i = load ptr, ptr %30, align 8, !tbaa !85
  %.not.i = icmp eq ptr %.then.val.i.i.i, null
  br i1 %.not.i, label %_ZN3sls15datatype_plugin32propagate_literal_model_buildingEN3sat7literalE.exit, label %31

31:                                               ; preds = %_ZN3sls7context4atomEj.exit.i
  %32 = getelementptr inbounds nuw i8, ptr %.then.val.i.i.i, i64 4
  %33 = load i32, ptr %32, align 4
  %34 = and i32 %33, 65535
  %35 = icmp eq i32 %34, 0
  br i1 %35, label %36, label %_ZN3sls15datatype_plugin32propagate_literal_model_buildingEN3sat7literalE.exit

36:                                               ; preds = %31
  %37 = load ptr, ptr %0, align 8, !tbaa !3
  %38 = getelementptr inbounds nuw i8, ptr %37, i64 88
  %39 = load ptr, ptr %38, align 8
  %40 = tail call noundef zeroext i1 %39(ptr noundef nonnull align 8 dereferenceable(240) %0, ptr noundef nonnull %.then.val.i.i.i)
  br label %_ZN3sls15datatype_plugin32propagate_literal_model_buildingEN3sat7literalE.exit

_ZN3sls15datatype_plugin32propagate_literal_model_buildingEN3sat7literalE.exit: ; preds = %36, %31, %_ZN3sls7context4atomEj.exit.i, %_ZNK6vectorIP4exprLb0EjE3getEjRKS1_.exit.i.i.i, %21, %12, %6
  ret void
}